(dp1
S'output'
p2
S"<type 'exceptions.TypeError'> string indices must be integers"
p3
sS'layer'
p4
S'/home/www-data/web2py.git/applications/ethical/controllers/data.py'
p5
sS'code'
p6
S'# -*- coding: utf-8 -*-\nimport requests\nfrom functools import partial\nbaseurl = "http://ipchannels.integreen-life.bz.it"\ncache_t = (3600*24)\n\nbaseurl = "http://ipchannels.integreen-life.bz.it"\nfrontends = {\'Meteo\':\'MeteoFrontEnd\', \n             \'Vehicle\': \'VehicleFrontEnd\', \n             \'Environment\':\'EnvironmentFrontEnd\', \n             \'Parking\': \'parkingFrontEnd\',\n             \'Bluetooth\':\'BluetoothFrontEnd\', \n             \'Link\':\'LinkFrontEnd\', \n             \'Street\': \'StreetFrontEnd\', \n             \'Traffic\': \'TrafficFrontEnd\',\n             }\n\ndef get_frontends():\n    session.forget(request)\n    response.headers[\'web2py-component-content\'] = \'append\'\n\n    #response.headers[\'web2py-component-content\'] = \'hide\'\n    #response.headers[\'web2py-component-command\'] = "add_after_form(xhr, \'form_frontend\');"\n    \n    return response.render(\'data/frontends_form.html\', {\'frontends\':frontends, \'frontend\':\'RWISFrontEnd\'})\n\ndef get_stations():\n    session.forget(request)\n    frontend = request.vars.frontend    \n    if not frontend or frontend not in frontends:\n        return HTTP(404)\n\n    response.headers[\'web2py-component-content\'] = \'append\'\n    stations = __get_stations(frontends[frontend])\n    response.headers[\'web2py-component-content\'] = \'hide\'\n    response.headers[\'web2py-component-command\'] = "add_after_form(xhr, \'form_frontend\');"\n    \n    return response.render(\'data/stations_form.html\', {\'stations\':stations, \'frontend\':frontend})\n\ndef _get_station(stationcode, frontend):\n    for s in __get_stations(frontend):\n        if s[\'id\'] == stationcode:\n            return s\n    return None\n\ndef get_data_types():\n    session.forget(request)\n    station = request.vars.station\n    frontend = request.vars.frontend\n    if not frontend or frontend not in frontends:\n        return HTTP(404)\n    s_obj = _get_station(station, frontends[frontend])\n    tab_name = request.vars.tab if request.vars.tab else \'sidebar_console\'\n    tab = "#%s .sidebar" % request.vars.tab if request.vars.tab else \'#sidebar_console\'\n    if s_obj == None:\n        raise HTTP(404, \'Station not found\')\n    name = s_obj[\'name\']\n    \n    response.headers[\'web2py-component-content\'] = \'hide\'\n    response.headers[\'web2py-component-command\'] = "fix_dynamic_accordion(\'%(tab)s\'); append_to(xhr, \'%(tab)s\');" % {\'tab\':tab}\n\n    data_types = __get_types(station, frontends[frontend])\n    if frontend.lower() == \'vehicle\':\n        data_types_filtered = filter(lambda r: \'valid\' not in r[0], data_types)\n        data_types_filtered = filter(lambda r: \'runtime\' not in r[0], data_types_filtered)\n        data_types_filtered = filter(lambda r: \'id_\' not in r[0], data_types_filtered)\n        data_types_filtered = filter(lambda r: \'gps_\' not in r[0] or \'speed\' in r[0], data_types_filtered)\n    else:\n        data_types_filtered = data_types\n    data_types_filtered.sort(key=lambda v: (v[0],int(v[3])) if len(v)>3 and v[3].isdigit() else v[0])\n    return response.render(\'data/data_types_legend.html\', {\'data_types\':data_types_filtered, \'frontend\':frontend, \'name\':name, \'station\':station, \'tab_name\':tab_name })\n\n@cache.action(time_expire=180, cache_model=cache.ram, vars=True)\ndef get_data():\n    session.forget(request)\n    station = request.vars.station \n    data_type = request.vars.data_type\n    data_label = request.vars.data_label\n    unit = request.vars.unit\n    period = request.vars.period\n    seconds = request.vars.seconds\n    from_epoch = int(request.vars[\'from\'])\n    to_epoch = int(request.vars.to)\n    frontend = request.vars.frontend\n    if not frontend or frontend not in frontends:\n        return HTTP(404)\n    url = "%s/%s/rest/get-records-in-timeframe" % (baseurl, frontends[frontend])\n    params = {\'station\':station, \'name\':data_type, \'unit\':unit, \'from\':from_epoch, \'to\': to_epoch}\n    if period:\n        params[\'period\'] = period\n    r = requests.get(url, params=params)\n    #print r.url\n    data = r.json()\n    output = [ [d[\'timestamp\'], "%.2f" % float(d[\'value\'])] for d in data]\n \n    # the id must be the same of the A element in the data type list\n    series = [{\'data\':output, \'id\': IS_SLUG()(\'type_%s_%s_%s\' % (station,data_type,period))[0], \'station_id\':\'station_iud\', \'label\': "%s - %s" % (station, data_label)}]\n    return response.json({\'series\': series})\n\ndef __get_stations(frontend):\n    def local():\n        url = "%s/%s/rest/get-station-details" % (baseurl, frontend)\n        r = requests.get(url) # params=url_vars)\n        print r.url\n        stations = r.json()\n        stations.sort(key=lambda v: v[\'name\'])\n        return stations\n    stations = cache.ram(\'stations_%s\' % frontend, local, cache_t)\n    return stations\n\ndef __get_types(station, frontend):\n    def local(station):\n        url = "%s/%s/rest/get-data-types" % (baseurl, frontend)\n        r = requests.get(url, params={\'station\':station})\n        types = r.json()\n        types.sort(key=lambda v: v)\n        return types\n    types = cache.ram(\'types_%s\' % station, partial(local, station), cache_t)\n    return types\n    \n#@cache.action(time_expire=180, cache_model=cache.ram, vars=True)\ndef get_geojson():\n    session.forget(request)\n    frontend = request.vars.frontend\n    frontend = frontends[frontend] if frontend in frontends else \'\'\n    data_type = request.vars.type\n    period = request.vars.period\n\n    stations = cache.ram(\'__get_stations_info_%s\' % frontend, lambda: __get_stations_info(frontend), (3600 * 24))\n\n    for s in stations:\n        s[\'last_value\'] = __get_last_value(frontend, s[\'id\'], data_type, period)\n    \n    features= [{"type": "Feature",\n                "properties": {\n                    "id":s[\'id\'],\n                    "popupContent": "%s %s" % (s[\'name\'], s[\'last_value\']),\n                    "openPopup": False,\n                    "last_value": s[\'last_value\'],\n                },\n                "geometry": {\n                    "type": "Point",\n                    "coordinates": [s[\'longitude\'], s[\'latitude\']]\n                },} for s in stations] \n\n    response.headers[\'Content-Type\'] = \'application/json\'\n    return response.json({"type": "FeatureCollection", \'features\': features}) \n\n# Return basic info for all available parking lots\ndef __get_stations_info(frontend):\n    r = requests.get("%s/%s/rest/get-station-details" % (baseurl, frontend))\n    #print r.url\n    if \'exceptionMessage\' in r.json():\n        return []\n    return r.json()\n\ndef __get_last_value(frontend, _id,  _type, _period):\n    rest_url = "%s/%s" % (baseurl, frontend)\n    method = "rest/get-records"\n    params = {\'name\':_type, \'period\':_period, \'station\':_id, \'seconds\': 7200}\n    r = requests.get("%s/%s" % (rest_url, method), params=params)\n    data=r.json()\n\n    index = len(data)-1 # last value\n    if frontend == \'BluetoothFrontEnd\':\n        index = len(data)-2      # last but one value\n\n    if \'exceptionMessage\' in data or len(data) < -(index):\n        return -1\n\n    obj=data[index]\n    return int(obj[\'value\'])\n\nresponse._vars=response._caller(get_data)\n'
p7
sS'snapshot'
p8
(dp9
S'exception'
p10
(dp11
S'__hash__'
p12
S"<method-wrapper '__hash__' of exceptions.TypeError object>"
p13
sS'__setattr__'
p14
S"<method-wrapper '__setattr__' of exceptions.TypeError object>"
p15
sS'__reduce_ex__'
p16
S'<built-in method __reduce_ex__ of exceptions.TypeError object>'
p17
sS'__getslice__'
p18
S"<method-wrapper '__getslice__' of exceptions.TypeError object>"
p19
sS'__getitem__'
p20
S"<method-wrapper '__getitem__' of exceptions.TypeError object>"
p21
sS'__setstate__'
p22
S'<built-in method __setstate__ of exceptions.TypeError object>'
p23
sS'args'
p24
S"('string indices must be integers',)"
p25
sS'__reduce__'
p26
S'<built-in method __reduce__ of exceptions.TypeError object>'
p27
sS'__str__'
p28
S"<method-wrapper '__str__' of exceptions.TypeError object>"
p29
sS'__format__'
p30
S'<built-in method __format__ of exceptions.TypeError object>'
p31
sS'__getattribute__'
p32
S"<method-wrapper '__getattribute__' of exceptions.TypeError object>"
p33
sS'__class__'
p34
S"<type 'exceptions.TypeError'>"
p35
sS'__unicode__'
p36
S'<built-in method __unicode__ of exceptions.TypeError object>'
p37
sS'__delattr__'
p38
S"<method-wrapper '__delattr__' of exceptions.TypeError object>"
p39
sS'__subclasshook__'
p40
S'<built-in method __subclasshook__ of type object>'
p41
sS'__repr__'
p42
S"<method-wrapper '__repr__' of exceptions.TypeError object>"
p43
sS'__dict__'
p44
S'{}'
p45
sS'__sizeof__'
p46
S'<built-in method __sizeof__ of exceptions.TypeError object>'
p47
sS'__doc__'
p48
S"'Inappropriate argument type.'"
p49
sS'__init__'
p50
S"<method-wrapper '__init__' of exceptions.TypeError object>"
p51
sS'__new__'
p52
S'<built-in method __new__ of type object>'
p53
ssS'evalue'
p54
S'string indices must be integers'
p55
sS'request'
p56
cgluon.html
XML_unpickle
p57
(S's\x97e\x00\x00<div><table><tr><td style="font-weight:bold;vertical-align:top;">ajax</td><td style="vertical-align:top;">:</td><td><div>True</div></td></tr><tr><td style="font-weight:bold;vertical-align:top;">application</td><td style="vertical-align:top;">:</td><td><div>ethical</div></td></tr><tr><td style="font-weight:bold;vertical-align:top;">args</td><td style="vertical-align:top;">:</td><td><div><table></table></div></td></tr><tr><td style="font-weight:bold;vertical-align:top;">cid</td><td style="vertical-align:top;">:</td><td><div>None</div></td></tr><tr><td style="font-weight:bold;vertical-align:top;">client</td><td style="vertical-align:top;">:</td><td><div>185.167.192.253</div></td></tr><tr><td style="font-weight:bold;vertical-align:top;">controller</td><td style="vertical-align:top;">:</td><td><div>data</div></td></tr><tr><td style="font-weight:bold;vertical-align:top;">cookies</td><td style="vertical-align:top;">:</td><td><div><table><tr><td style="font-weight:bold;vertical-align:top;">ajs_group_id</td><td style="vertical-align:top;">:</td><td><div>null<table><tr><td style="font-weight:bold;vertical-align:top;">comment</td><td style="vertical-align:top;">:</td><td><div></div></td></tr><tr><td style="font-weight:bold;vertical-align:top;">domain</td><td style="vertical-align:top;">:</td><td><div></div></td></tr><tr><td style="font-weight:bold;vertical-align:top;">expires</td><td style="vertical-align:top;">:</td><td><div></div></td></tr><tr><td style="font-weight:bold;vertical-align:top;">httponly</td><td style="vertical-align:top;">:</td><td><div></div></td></tr><tr><td style="font-weight:bold;vertical-align:top;">max-age</td><td style="vertical-align:top;">:</td><td><div></div></td></tr><tr><td style="font-weight:bold;vertical-align:top;">path</td><td style="vertical-align:top;">:</td><td><div></div></td></tr><tr><td style="font-weight:bold;vertical-align:top;">secure</td><td style="vertical-align:top;">:</td><td><div></div></td></tr><tr><td style="font-weight:bold;vertical-align:top;">version</td><td style="vertical-align:top;">:</td><td><div></div></td></tr></table></div></td></tr><tr><td style="font-weight:bold;vertical-align:top;">ajs_user_id</td><td style="vertical-align:top;">:</td><td><div>null<table><tr><td style="font-weight:bold;vertical-align:top;">comment</td><td style="vertical-align:top;">:</td><td><div></div></td></tr><tr><td style="font-weight:bold;vertical-align:top;">domain</td><td style="vertical-align:top;">:</td><td><div></div></td></tr><tr><td style="font-weight:bold;vertical-align:top;">expires</td><td style="vertical-align:top;">:</td><td><div></div></td></tr><tr><td style="font-weight:bold;vertical-align:top;">httponly</td><td style="vertical-align:top;">:</td><td><div></div></td></tr><tr><td style="font-weight:bold;vertical-align:top;">max-age</td><td style="vertical-align:top;">:</td><td><div></div></td></tr><tr><td style="font-weight:bold;vertical-align:top;">path</td><td style="vertical-align:top;">:</td><td><div></div></td></tr><tr><td style="font-weight:bold;vertical-align:top;">secure</td><td style="vertical-align:top;">:</td><td><div></div></td></tr><tr><td style="font-weight:bold;vertical-align:top;">version</td><td style="vertical-align:top;">:</td><td><div></div></td></tr></table></div></td></tr><tr><td style="font-weight:bold;vertical-align:top;">lang</td><td style="vertical-align:top;">:</td><td><div>it<table><tr><td style="font-weight:bold;vertical-align:top;">comment</td><td style="vertical-align:top;">:</td><td><div></div></td></tr><tr><td style="font-weight:bold;vertical-align:top;">domain</td><td style="vertical-align:top;">:</td><td><div></div></td></tr><tr><td style="font-weight:bold;vertical-align:top;">expires</td><td style="vertical-align:top;">:</td><td><div></div></td></tr><tr><td style="font-weight:bold;vertical-align:top;">httponly</td><td style="vertical-align:top;">:</td><td><div></div></td></tr><tr><td style="font-weight:bold;vertical-align:top;">max-age</td><td style="vertical-align:top;">:</td><td><div></div></td></tr><tr><td style="font-weight:bold;vertical-align:top;">path</td><td style="vertical-align:top;">:</td><td><div></div></td></tr><tr><td style="font-weight:bold;vertical-align:top;">secure</td><td style="vertical-align:top;">:</td><td><div></div></td></tr><tr><td style="font-weight:bold;vertical-align:top;">version</td><td style="vertical-align:top;">:</td><td><div></div></td></tr></table></div></td></tr><tr><td style="font-weight:bold;vertical-align:top;">length_link_active</td><td style="vertical-align:top;">:</td><td><div>5<table><tr><td style="font-weight:bold;vertical-align:top;">comment</td><td style="vertical-align:top;">:</td><td><div></div></td></tr><tr><td style="font-weight:bold;vertical-align:top;">domain</td><td style="vertical-align:top;">:</td><td><div></div></td></tr><tr><td style="font-weight:bold;vertical-align:top;">expires</td><td style="vertical-align:top;">:</td><td><div></div></td></tr><tr><td style="font-weight:bold;vertical-align:top;">httponly</td><td style="vertical-align:top;">:</td><td><div></div></td></tr><tr><td style="font-weight:bold;vertical-align:top;">max-age</td><td style="vertical-align:top;">:</td><td><div></div></td></tr><tr><td style="font-weight:bold;vertical-align:top;">path</td><td style="vertical-align:top;">:</td><td><div></div></td></tr><tr><td style="font-weight:bold;vertical-align:top;">secure</td><td style="vertical-align:top;">:</td><td><div></div></td></tr><tr><td style="font-weight:bold;vertical-align:top;">version</td><td style="vertical-align:top;">:</td><td><div></div></td></tr></table></div></td></tr><tr><td style="font-weight:bold;vertical-align:top;">session_id_ethical</td><td style="vertical-align:top;">:</td><td><div>185.167.192.253-33df71e5-4ead-4dfe-a83f-b38ceda5eb59<table><tr><td style="font-weight:bold;vertical-align:top;">comment</td><td style="vertical-align:top;">:</td><td><div></div></td></tr><tr><td style="font-weight:bold;vertical-align:top;">domain</td><td style="vertical-align:top;">:</td><td><div></div></td></tr><tr><td style="font-weight:bold;vertical-align:top;">expires</td><td style="vertical-align:top;">:</td><td><div></div></td></tr><tr><td style="font-weight:bold;vertical-align:top;">httponly</td><td style="vertical-align:top;">:</td><td><div></div></td></tr><tr><td style="font-weight:bold;vertical-align:top;">max-age</td><td style="vertical-align:top;">:</td><td><div></div></td></tr><tr><td style="font-weight:bold;vertical-align:top;">path</td><td style="vertical-align:top;">:</td><td><div></div></td></tr><tr><td style="font-weight:bold;vertical-align:top;">secure</td><td style="vertical-align:top;">:</td><td><div></div></td></tr><tr><td style="font-weight:bold;vertical-align:top;">version</td><td style="vertical-align:top;">:</td><td><div></div></td></tr></table></div></td></tr><tr><td style="font-weight:bold;vertical-align:top;">spinner</td><td style="vertical-align:top;">:</td><td><div>5<table><tr><td style="font-weight:bold;vertical-align:top;">comment</td><td style="vertical-align:top;">:</td><td><div></div></td></tr><tr><td style="font-weight:bold;vertical-align:top;">domain</td><td style="vertical-align:top;">:</td><td><div></div></td></tr><tr><td style="font-weight:bold;vertical-align:top;">expires</td><td style="vertical-align:top;">:</td><td><div></div></td></tr><tr><td style="font-weight:bold;vertical-align:top;">httponly</td><td style="vertical-align:top;">:</td><td><div></div></td></tr><tr><td style="font-weight:bold;vertical-align:top;">max-age</td><td style="vertical-align:top;">:</td><td><div></div></td></tr><tr><td style="font-weight:bold;vertical-align:top;">path</td><td style="vertical-align:top;">:</td><td><div></div></td></tr><tr><td style="font-weight:bold;vertical-align:top;">secure</td><td style="vertical-align:top;">:</td><td><div></div></td></tr><tr><td style="font-weight:bold;vertical-align:top;">version</td><td style="vertical-align:top;">:</td><td><div></div></td></tr></table></div></td></tr></table></div></td></tr><tr><td style="font-weight:bold;vertical-align:top;">env</td><td style="vertical-align:top;">:</td><td><div><table><tr><td style="font-weight:bold;vertical-align:top;">CONTENT_LENGTH</td><td style="vertical-align:top;">:</td><td><div></div></td></tr><tr><td style="font-weight:bold;vertical-align:top;">CONTENT_TYPE</td><td style="vertical-align:top;">:</td><td><div></div></td></tr><tr><td style="font-weight:bold;vertical-align:top;">DOCUMENT_ROOT</td><td style="vertical-align:top;">:</td><td><div>/usr/share/nginx/html</div></td></tr><tr><td style="font-weight:bold;vertical-align:top;">HTTP_ACCEPT</td><td style="vertical-align:top;">:</td><td><div>application/json, text/javascript, */*; q=0.01</div></td></tr><tr><td style="font-weight:bold;vertical-align:top;">HTTP_ACCEPT_ENCODING</td><td style="vertical-align:top;">:</td><td><div>gzip, deflate</div></td></tr><tr><td style="font-weight:bold;vertical-align:top;">HTTP_ACCEPT_LANGUAGE</td><td style="vertical-align:top;">:</td><td><div>en-US,en;q=0.5</div></td></tr><tr><td style="font-weight:bold;vertical-align:top;">HTTP_CONNECTION</td><td style="vertical-align:top;">:</td><td><div>keep-alive</div></td></tr><tr><td style="font-weight:bold;vertical-align:top;">HTTP_COOKIE</td><td style="vertical-align:top;">:</td><td><div>__utma=177085241.431438423.1382542583.1448536735.1455183514.39; _ga=GA1.3.431438423.1382542583; ajs_group_id=null; ajs_user_id=null; lang=it; length_link_active=5; spinner=5; session_id_ethical=185.167.192.253-33df71e5-4ead-4dfe-a83f-b38ceda5eb59; _gat=1</div></td></tr><tr><td style="font-weight:bold;vertical-align:top;">HTTP_HOST</td><td style="vertical-align:top;">:</td><td><div>analytics.mobility.bz.it</div></td></tr><tr><td style="font-weight:bold;vertical-align:top;">HTTP_REFERER</td><td style="vertical-align:top;">:</td><td><div>http://analytics.mobility.bz.it/</div></td></tr><tr><td style="font-weight:bold;vertical-align:top;">HTTP_USER_AGENT</td><td style="vertical-align:top;">:</td><td><div>Mozilla/5.0 (X11; Ubuntu; Linux x86_64; rv:49.0) Gecko/20100101 Firefox/49.0</div></td></tr><tr><td style="font-weight:bold;vertical-align:top;">HTTP_X_REQUESTED_WITH</td><td style="vertical-align:top;">:</td><td><div>XMLHttpRequest</div></td></tr><tr><td style="font-weight:bold;vertical-align:top;">PATH_INFO</td><td style="vertical-align:top;">:</td><td><div>/data/get_data.json</div></td></tr><tr><td style="font-weight:bold;vertical-align:top;">QUERY_STRING</td><td style="vertical-align:top;">:</td><td><div>frontend=Bluetooth&amp;station=siemens&amp;unit=&amp;data_type=Bluetooth+Count+record&amp;data_label=Count+record++(900)s&amp;period=900&amp;from=1476339727956&amp;to=1476944527957</div></td></tr><tr><td style="font-weight:bold;vertical-align:top;">REMOTE_ADDR</td><td style="vertical-align:top;">:</td><td><div>185.167.192.253</div></td></tr><tr><td style="font-weight:bold;vertical-align:top;">REMOTE_PORT</td><td style="vertical-align:top;">:</td><td><div>42655</div></td></tr><tr><td style="font-weight:bold;vertical-align:top;">REQUEST_METHOD</td><td style="vertical-align:top;">:</td><td><div>GET</div></td></tr><tr><td style="font-weight:bold;vertical-align:top;">REQUEST_URI</td><td style="vertical-align:top;">:</td><td><div>/data/get_data.json?frontend=Bluetooth&amp;station=siemens&amp;unit=&amp;data_type=Bluetooth+Count+record&amp;data_label=Count+record++(900)s&amp;period=900&amp;from=1476339727956&amp;to=1476944527957</div></td></tr><tr><td style="font-weight:bold;vertical-align:top;">SERVER_NAME</td><td style="vertical-align:top;">:</td><td><div>traffic.integreen-life.bz.it</div></td></tr><tr><td style="font-weight:bold;vertical-align:top;">SERVER_PORT</td><td style="vertical-align:top;">:</td><td><div>80</div></td></tr><tr><td style="font-weight:bold;vertical-align:top;">SERVER_PROTOCOL</td><td style="vertical-align:top;">:</td><td><div>HTTP/1.1</div></td></tr><tr><td style="font-weight:bold;vertical-align:top;">SERVER_SOFTWARE</td><td style="vertical-align:top;">:</td><td><div>nginx/1.5.3</div></td></tr><tr><td style="font-weight:bold;vertical-align:top;">UWSGI_SCHEME</td><td style="vertical-align:top;">:</td><td><div>http</div></td></tr><tr><td style="font-weight:bold;vertical-align:top;">app_folders</td><td style="vertical-align:top;">:</td><td><div>set([&#x27;/home/www-data/web2py.git/applications/parkbzNew/&#x27;, &#x27;/home/www-data/web2py.git/applications/ethical/&#x27;])</div></td></tr><tr><td style="font-weight:bold;vertical-align:top;">applications_parent</td><td style="vertical-align:top;">:</td><td><div>/home/www-data/web2py.git</div></td></tr><tr><td style="font-weight:bold;vertical-align:top;">content_length</td><td style="vertical-align:top;">:</td><td><div></div></td></tr><tr><td style="font-weight:bold;vertical-align:top;">content_type</td><td style="vertical-align:top;">:</td><td><div></div></td></tr><tr><td style="font-weight:bold;vertical-align:top;">db_sessions</td><td style="vertical-align:top;">:</td><td><div>set([])</div></td></tr><tr><td style="font-weight:bold;vertical-align:top;">debugging</td><td style="vertical-align:top;">:</td><td><div>False</div></td></tr><tr><td style="font-weight:bold;vertical-align:top;">document_root</td><td style="vertical-align:top;">:</td><td><div>/usr/share/nginx/html</div></td></tr><tr><td style="font-weight:bold;vertical-align:top;">domain_application</td><td style="vertical-align:top;">:</td><td><div>ethical</div></td></tr><tr><td style="font-weight:bold;vertical-align:top;">domain_controller</td><td style="vertical-align:top;">:</td><td><div>None</div></td></tr><tr><td style="font-weight:bold;vertical-align:top;">domain_function</td><td style="vertical-align:top;">:</td><td><div>None</div></td></tr><tr><td style="font-weight:bold;vertical-align:top;">gluon_parent</td><td style="vertical-align:top;">:</td><td><div>/home/www-data/web2py.git</div></td></tr><tr><td style="font-weight:bold;vertical-align:top;">http_accept</td><td style="vertical-align:top;">:</td><td><div>application/json, text/javascript, */*; q=0.01</div></td></tr><tr><td style="font-weight:bold;vertical-align:top;">http_accept_encoding</td><td style="vertical-align:top;">:</td><td><div>gzip, deflate</div></td></tr><tr><td style="font-weight:bold;vertical-align:top;">http_accept_language</td><td style="vertical-align:top;">:</td><td><div>en-US,en;q=0.5</div></td></tr><tr><td style="font-weight:bold;vertical-align:top;">http_connection</td><td style="vertical-align:top;">:</td><td><div>keep-alive</div></td></tr><tr><td style="font-weight:bold;vertical-align:top;">http_cookie</td><td style="vertical-align:top;">:</td><td><div>__utma=177085241.431438423.1382542583.1448536735.1455183514.39; _ga=GA1.3.431438423.1382542583; ajs_group_id=null; ajs_user_id=null; lang=it; length_link_active=5; spinner=5; session_id_ethical=185.167.192.253-33df71e5-4ead-4dfe-a83f-b38ceda5eb59; _gat=1</div></td></tr><tr><td style="font-weight:bold;vertical-align:top;">http_host</td><td style="vertical-align:top;">:</td><td><div>analytics.mobility.bz.it</div></td></tr><tr><td style="font-weight:bold;vertical-align:top;">http_referer</td><td style="vertical-align:top;">:</td><td><div>http://analytics.mobility.bz.it/</div></td></tr><tr><td style="font-weight:bold;vertical-align:top;">http_user_agent</td><td style="vertical-align:top;">:</td><td><div>Mozilla/5.0 (X11; Ubuntu; Linux x86_64; rv:49.0) Gecko/20100101 Firefox/49.0</div></td></tr><tr><td style="font-weight:bold;vertical-align:top;">http_x_requested_with</td><td style="vertical-align:top;">:</td><td><div>XMLHttpRequest</div></td></tr><tr><td style="font-weight:bold;vertical-align:top;">is_jython</td><td style="vertical-align:top;">:</td><td><div>False</div></td></tr><tr><td style="font-weight:bold;vertical-align:top;">is_pypy</td><td style="vertical-align:top;">:</td><td><div>False</div></td></tr><tr><td style="font-weight:bold;vertical-align:top;">is_source</td><td style="vertical-align:top;">:</td><td><div>True</div></td></tr><tr><td style="font-weight:bold;vertical-align:top;">local_hosts</td><td style="vertical-align:top;">:</td><td><div><table><tr><td><div>traffic.integreen-life.bz.it</div></td></tr><tr><td><div>::ffff:127.0.0.1</div></td></tr><tr><td><div>::1</div></td></tr><tr><td><div>traffic</div></td></tr><tr><td><div>127.0.1.1</div></td></tr><tr><td><div>127.0.0.1</div></td></tr></table></div></td></tr><tr><td style="font-weight:bold;vertical-align:top;">path_info</td><td style="vertical-align:top;">:</td><td><div>/data/get_data.json</div></td></tr><tr><td style="font-weight:bold;vertical-align:top;">query_string</td><td style="vertical-align:top;">:</td><td><div>frontend=Bluetooth&amp;station=siemens&amp;unit=&amp;data_type=Bluetooth+Count+record&amp;data_label=Count+record++(900)s&amp;period=900&amp;from=1476339727956&amp;to=1476944527957</div></td></tr><tr><td style="font-weight:bold;vertical-align:top;">remote_addr</td><td style="vertical-align:top;">:</td><td><div>185.167.192.253</div></td></tr><tr><td style="font-weight:bold;vertical-align:top;">remote_port</td><td style="vertical-align:top;">:</td><td><div>42655</div></td></tr><tr><td style="font-weight:bold;vertical-align:top;">request_method</td><td style="vertical-align:top;">:</td><td><div>GET</div></td></tr><tr><td style="font-weight:bold;vertical-align:top;">request_uri</td><td style="vertical-align:top;">:</td><td><div>/ethical/data/get_data.json?frontend=Bluetooth&amp;station=siemens&amp;unit=&amp;data_type=Bluetooth+Count+record&amp;data_label=Count+record++(900)s&amp;period=900&amp;from=1476339727956&amp;to=1476944527957</div></td></tr><tr><td style="font-weight:bold;vertical-align:top;">server_name</td><td style="vertical-align:top;">:</td><td><div>traffic.integreen-life.bz.it</div></td></tr><tr><td style="font-weight:bold;vertical-align:top;">server_port</td><td style="vertical-align:top;">:</td><td><div>80</div></td></tr><tr><td style="font-weight:bold;vertical-align:top;">server_protocol</td><td style="vertical-align:top;">:</td><td><div>HTTP/1.1</div></td></tr><tr><td style="font-weight:bold;vertical-align:top;">server_software</td><td style="vertical-align:top;">:</td><td><div>nginx/1.5.3</div></td></tr><tr><td style="font-weight:bold;vertical-align:top;">uwsgi.node</td><td style="vertical-align:top;">:</td><td><div>traffic</div></td></tr><tr><td style="font-weight:bold;vertical-align:top;">uwsgi.version</td><td style="vertical-align:top;">:</td><td><div>1.9.14</div></td></tr><tr><td style="font-weight:bold;vertical-align:top;">uwsgi_node</td><td style="vertical-align:top;">:</td><td><div>traffic</div></td></tr><tr><td style="font-weight:bold;vertical-align:top;">uwsgi_scheme</td><td style="vertical-align:top;">:</td><td><div>http</div></td></tr><tr><td style="font-weight:bold;vertical-align:top;">uwsgi_version</td><td style="vertical-align:top;">:</td><td><div>1.9.14</div></td></tr><tr><td style="font-weight:bold;vertical-align:top;">web2py_original_uri</td><td style="vertical-align:top;">:</td><td><div>/data/get_data.json?frontend=Bluetooth&amp;station=siemens&amp;unit=&amp;data_type=Bluetooth+Count+record&amp;data_label=Count+record++(900)s&amp;period=900&amp;from=1476339727956&amp;to=1476944527957</div></td></tr><tr><td style="font-weight:bold;vertical-align:top;">web2py_path</td><td style="vertical-align:top;">:</td><td><div>/home/www-data/web2py.git</div></td></tr><tr><td style="font-weight:bold;vertical-align:top;">web2py_version</td><td style="vertical-align:top;">:</td><td><div>2.9.5-stable+timestamp.2014.03.15.21.24.06</div></td></tr><tr><td style="font-weight:bold;vertical-align:top;">wsgi.errors</td><td style="vertical-align:top;">:</td><td><div>&lt;open file &#x27;wsgi_errors&#x27;, mode &#x27;w&#x27; at 0x1d94f60&gt;</div></td></tr><tr><td style="font-weight:bold;vertical-align:top;">wsgi.file_wrapper</td><td style="vertical-align:top;">:</td><td><div>&lt;built-in function uwsgi_sendfile&gt;</div></td></tr><tr><td style="font-weight:bold;vertical-align:top;">wsgi.input</td><td style="vertical-align:top;">:</td><td><div>&lt;uwsgi._Input object at 0x7fdaefbb84e0&gt;</div></td></tr><tr><td style="font-weight:bold;vertical-align:top;">wsgi.multiprocess</td><td style="vertical-align:top;">:</td><td><div>True</div></td></tr><tr><td style="font-weight:bold;vertical-align:top;">wsgi.multithread</td><td style="vertical-align:top;">:</td><td><div>False</div></td></tr><tr><td style="font-weight:bold;vertical-align:top;">wsgi.run_once</td><td style="vertical-align:top;">:</td><td><div>False</div></td></tr><tr><td style="font-weight:bold;vertical-align:top;">wsgi.url_scheme</td><td style="vertical-align:top;">:</td><td><div>http</div></td></tr><tr><td style="font-weight:bold;vertical-align:top;">wsgi.version</td><td style="vertical-align:top;">:</td><td><div><table><tr><td><div>1</div></td></tr><tr><td><div>0</div></td></tr></table></div></td></tr><tr><td style="font-weight:bold;vertical-align:top;">wsgi_errors</td><td style="vertical-align:top;">:</td><td><div>&lt;open file &#x27;wsgi_errors&#x27;, mode &#x27;w&#x27; at 0x1d94f60&gt;</div></td></tr><tr><td style="font-weight:bold;vertical-align:top;">wsgi_file_wrapper</td><td style="vertical-align:top;">:</td><td><div>&lt;built-in function uwsgi_sendfile&gt;</div></td></tr><tr><td style="font-weight:bold;vertical-align:top;">wsgi_input</td><td style="vertical-align:top;">:</td><td><div>&lt;uwsgi._Input object at 0x7fdaefbb84e0&gt;</div></td></tr><tr><td style="font-weight:bold;vertical-align:top;">wsgi_multiprocess</td><td style="vertical-align:top;">:</td><td><div>True</div></td></tr><tr><td style="font-weight:bold;vertical-align:top;">wsgi_multithread</td><td style="vertical-align:top;">:</td><td><div>False</div></td></tr><tr><td style="font-weight:bold;vertical-align:top;">wsgi_run_once</td><td style="vertical-align:top;">:</td><td><div>False</div></td></tr><tr><td style="font-weight:bold;vertical-align:top;">wsgi_url_scheme</td><td style="vertical-align:top;">:</td><td><div>http</div></td></tr><tr><td style="font-weight:bold;vertical-align:top;">wsgi_version</td><td style="vertical-align:top;">:</td><td><div><table><tr><td><div>1</div></td></tr><tr><td><div>0</div></td></tr></table></div></td></tr></table></div></td></tr><tr><td style="font-weight:bold;vertical-align:top;">extension</td><td style="vertical-align:top;">:</td><td><div>json</div></td></tr><tr><td style="font-weight:bold;vertical-align:top;">folder</td><td style="vertical-align:top;">:</td><td><div>/home/www-data/web2py.git/applications/ethical/</div></td></tr><tr><td style="font-weight:bold;vertical-align:top;">function</td><td style="vertical-align:top;">:</td><td><div>get_data</div></td></tr><tr><td style="font-weight:bold;vertical-align:top;">global_settings</td><td style="vertical-align:top;">:</td><td><div><table><tr><td style="font-weight:bold;vertical-align:top;">app_folders</td><td style="vertical-align:top;">:</td><td><div>set([&#x27;/home/www-data/web2py.git/applications/parkbzNew/&#x27;, &#x27;/home/www-data/web2py.git/applications/ethical/&#x27;])</div></td></tr><tr><td style="font-weight:bold;vertical-align:top;">applications_parent</td><td style="vertical-align:top;">:</td><td><div>/home/www-data/web2py.git</div></td></tr><tr><td style="font-weight:bold;vertical-align:top;">db_sessions</td><td style="vertical-align:top;">:</td><td><div>set([])</div></td></tr><tr><td style="font-weight:bold;vertical-align:top;">debugging</td><td style="vertical-align:top;">:</td><td><div>False</div></td></tr><tr><td style="font-weight:bold;vertical-align:top;">gluon_parent</td><td style="vertical-align:top;">:</td><td><div>/home/www-data/web2py.git</div></td></tr><tr><td style="font-weight:bold;vertical-align:top;">is_jython</td><td style="vertical-align:top;">:</td><td><div>False</div></td></tr><tr><td style="font-weight:bold;vertical-align:top;">is_pypy</td><td style="vertical-align:top;">:</td><td><div>False</div></td></tr><tr><td style="font-weight:bold;vertical-align:top;">is_source</td><td style="vertical-align:top;">:</td><td><div>True</div></td></tr><tr><td style="font-weight:bold;vertical-align:top;">local_hosts</td><td style="vertical-align:top;">:</td><td><div><table><tr><td><div>traffic.integreen-life.bz.it</div></td></tr><tr><td><div>::ffff:127.0.0.1</div></td></tr><tr><td><div>::1</div></td></tr><tr><td><div>traffic</div></td></tr><tr><td><div>127.0.1.1</div></td></tr><tr><td><div>127.0.0.1</div></td></tr></table></div></td></tr><tr><td style="font-weight:bold;vertical-align:top;">web2py_version</td><td style="vertical-align:top;">:</td><td><div>2.9.5-stable+timestamp.2014.03.15.21.24.06</div></td></tr></table></div></td></tr><tr><td style="font-weight:bold;vertical-align:top;">is_https</td><td style="vertical-align:top;">:</td><td><div>False</div></td></tr><tr><td style="font-weight:bold;vertical-align:top;">is_local</td><td style="vertical-align:top;">:</td><td><div>False</div></td></tr><tr><td style="font-weight:bold;vertical-align:top;">is_restful</td><td style="vertical-align:top;">:</td><td><div>False</div></td></tr><tr><td style="font-weight:bold;vertical-align:top;">now</td><td style="vertical-align:top;">:</td><td><div>datetime.datetime(2016, 10, 20, 8, 22, 49, 257061)</div></td></tr><tr><td style="font-weight:bold;vertical-align:top;">url</td><td style="vertical-align:top;">:</td><td><div>/data/get_data.json</div></td></tr><tr><td style="font-weight:bold;vertical-align:top;">utcnow</td><td style="vertical-align:top;">:</td><td><div>datetime.datetime(2016, 10, 20, 6, 22, 49, 257080)</div></td></tr><tr><td style="font-weight:bold;vertical-align:top;">uuid</td><td style="vertical-align:top;">:</td><td><div>ethical/185.167.192.253.2016-10-20.08-22-49.88bb7da6-256d-49ac-bd3f-5f3c31f2c554</div></td></tr><tr><td style="font-weight:bold;vertical-align:top;">wsgi</td><td style="vertical-align:top;">:</td><td><div>&lt;gluon.main.LazyWSGI object at 0x263e5d0&gt;</div></td></tr></table></div>'
tRp58
sS'frames'
p59
(lp60
(dp61
S'file'
p62
S'/home/www-data/web2py/gluon/restricted.py'
p63
sS'dump'
p64
(dp65
S'environment'
p66
S"{'A': <class 'gluon.html.A'>, 'ANY_OF': <class 'gluon.validators.ANY_OF'>, 'Auth': <class 'gluon.tools.Auth'>, 'B': <class 'gluon.html.B'>, 'BEAUTIFY': <class 'gluon.html.BEAUTIFY'>, 'BODY': <class 'gluon.html.BODY'>, 'BR': <class 'gluon.html.BR'>, 'BUTTON': <class 'gluon.html.BUTTON'>, 'CAT': <class 'gluon.html.CAT'>, 'CENTER': <class 'gluon.html.CENTER'>, ...}"
p67
sS'ccode'
p68
S'<code object <module> at 0x25422b0, file "/home/...pplications/ethical/controllers/data.py", line 2>'
p69
ssS'lnum'
p70
I220
sS'lines'
p71
(dp72
I224
S'        # do not encapsulate (obfuscate) the original RestrictedError'
p73
sI215
S'    try:'
p74
sI216
S'        if isinstance(code, types.CodeType):'
p75
sI217
S'            ccode = code'
p76
sI218
S'        else:'
p77
sI219
S'            ccode = compile2(code, layer)'
p78
sI220
S'        exec ccode in environment'
p79
sI221
S'    except HTTP:'
p80
sI222
S'        raise'
p81
sI223
S'    except RestrictedError:'
p82
ssS'call'
p83
S'(code="# -*- coding: utf-8 -*-\\nimport requests\\nfrom fun...ue\'])\\n\\nresponse._vars=response._caller(get_data)\\n", environment={\'A\': <class \'gluon.html.A\'>, \'ANY_OF\': <class \'gluon.validators.ANY_OF\'>, \'Auth\': <class \'gluon.tools.Auth\'>, \'B\': <class \'gluon.html.B\'>, \'BEAUTIFY\': <class \'gluon.html.BEAUTIFY\'>, \'BODY\': <class \'gluon.html.BODY\'>, \'BR\': <class \'gluon.html.BR\'>, \'BUTTON\': <class \'gluon.html.BUTTON\'>, \'CAT\': <class \'gluon.html.CAT\'>, \'CENTER\': <class \'gluon.html.CENTER\'>, ...}, layer=\'/home/www-data/web2py.git/applications/ethical/controllers/data.py\')'
p84
sS'func'
p85
S'restricted'
p86
sa(dp87
g62
S'/home/www-data/web2py.git/applications/ethical/controllers/data.py'
p88
sg64
(dp89
sg70
I174
sg71
(dp90
I163
S''
sI164
S'    index = len(data)-1 # last value'
p91
sI165
S"    if frontend == 'BluetoothFrontEnd':"
p92
sI166
S'        index = len(data)-2      # last but one value'
p93
sI167
S''
sI168
S"    if 'exceptionMessage' in data or len(data) < -(index):"
p94
sI169
S'        return -1'
p95
sI170
S''
sI171
S'    obj=data[index]'
p96
sI172
S"    return int(obj['value'])"
p97
ssg83
S'()'
p98
sg85
S'<module>'
p99
sa(dp100
g62
S'/home/www-data/web2py/gluon/globals.py'
p101
sg64
(dp102
S'self'
p103
S'undefined'
p104
sS'f'
S'<function get_data>'
p105
ssg70
I385
sg71
(dp106
I384
S'        self._vars = None'
p107
sI385
S'        self._caller = lambda f: f()'
p108
sI386
S'        self._view_environment = None'
p109
sI387
S'        self._custom_commit = None'
p110
sI388
S'        self._custom_rollback = None'
p111
sI389
S''
sI380
S'        self.menu = []             # used by the default view layout'
p112
sI381
S'        self.files = []            # used by web2py_ajax.html'
p113
sI382
S'        self.generic_patterns = []  # patterns to allow generic views'
p114
sI383
S"        self.delimiters = ('{{', '}}')"
p115
ssg83
S'(f=<function get_data>)'
p116
sg85
S'<lambda>'
p117
sa(dp118
g62
S'/home/www-data/web2py/gluon/cache.py'
p119
sg64
(dp120
S'cache_key'
p121
S"'649bca5a92d1eaba91c46c99e1d9ee26'"
p122
sS'rtn'
p123
g104
sS'time_expire'
p124
S'180'
p125
sS'func'
p126
S'<function get_data>'
p127
sS'cache_model'
p128
S'<gluon.cache.CacheInRam object>'
p129
ssg70
I510
sg71
(dp130
I512
S'                    except HTTP, e:'
p131
sI513
S'                        #action raises HTTP (can still be valid)'
p132
sI514
S'                        rtn = cache_model(cache_key, lambda : e.body, time_expire=time_expire)'
p133
sI505
S"                    cache_key = hashlib.md5('__'.join(cache_key)).hexdigest()"
p134
sI506
S'                    if prefix:'
p135
sI507
S'                        cache_key = prefix + cache_key'
p136
sI508
S'                    try:'
p137
sI509
S'                        #action returns something'
p138
sI510
S'                        rtn = cache_model(cache_key, lambda : func(), time_expire=time_expire)'
p139
sI511
S'                        http, status = None, current.response.status'
p140
ssg83
S'()'
p141
sg85
S'wrapped_f'
p142
sa(dp143
g62
S'/home/www-data/web2py/gluon/cache.py'
p144
sg64
(dp145
S'value'
p146
g104
sS'f'
S'<function <lambda>>'
p147
ssg70
I216
sg71
(dp148
I211
S'            return None'
p149
sI212
S'        if item and (dt is None or item[0] > now - dt):'
p150
sI213
S'            return item[1]'
p151
sI214
S'        elif item and (item[0] < now - dt) and destroyer:'
p152
sI215
S'            destroyer(item[1])'
p153
sI216
S'        value = f()'
p154
sI217
S''
sI218
S'        self.locker.acquire()'
p155
sI219
S'        self.storage[key] = (now, value)'
p156
sI220
S"        self.storage[CacheAbstract.cache_stats_name]['misses'] += 1"
p157
ssg83
S"(self=<gluon.cache.CacheInRam object>, key='649bca5a92d1eaba91c46c99e1d9ee26', f=<function <lambda>>, time_expire=180, destroyer=None)"
p158
sg85
S'__call__'
p159
sa(dp160
g62
S'/home/www-data/web2py/gluon/cache.py'
p161
sg64
(dp162
S'cache_key'
p163
g104
sS'rtn'
p164
g104
sS'time_expire'
p165
g104
sS'func'
p166
S'<function get_data>'
p167
sS'cache_model'
p168
g104
ssg70
I510
sg71
(dp169
I512
S'                    except HTTP, e:'
p170
sI513
S'                        #action raises HTTP (can still be valid)'
p171
sI514
S'                        rtn = cache_model(cache_key, lambda : e.body, time_expire=time_expire)'
p172
sI505
S"                    cache_key = hashlib.md5('__'.join(cache_key)).hexdigest()"
p173
sI506
S'                    if prefix:'
p174
sI507
S'                        cache_key = prefix + cache_key'
p175
sI508
S'                    try:'
p176
sI509
S'                        #action returns something'
p177
sI510
S'                        rtn = cache_model(cache_key, lambda : func(), time_expire=time_expire)'
p178
sI511
S'                        http, status = None, current.response.status'
p179
ssg83
S'()'
p180
sg85
g117
sa(dp181
g62
S'/home/www-data/web2py.git/applications/ethical/controllers/data.py'
p182
sg64
(dp183
S'output'
p184
g104
sS'data'
p185
S"{u'exceptionMessage': u'Failed to execute request to xmlrpcserver', u'exceptionName': u'java.lang.IllegalStateException'}"
p186
sS'd'
S"u'exceptionMessage'"
p187
sS'builtinfloat'
p188
S"<type 'float'>"
p189
ssg70
I94
sg71
(dp190
I96
S'    # the id must be the same of the A element in the data type list'
p191
sI97
S'    series = [{\'data\':output, \'id\': IS_SLUG()(\'type_%s_%s_%s\' % (station,data_type,period))[0], \'station_id\':\'station_iud\', \'label\': "%s - %s" % (station, data_label)}]'
p192
sI98
S"    return response.json({'series': series})"
p193
sI89
S'    if period:'
p194
sI90
S"        params['period'] = period"
p195
sI91
S'    r = requests.get(url, params=params)'
p196
sI92
S'    #print r.url'
p197
sI93
S'    data = r.json()'
p198
sI94
S'    output = [ [d[\'timestamp\'], "%.2f" % float(d[\'value\'])] for d in data]'
p199
sI95
S''
ssg83
S'()'
p200
sg85
S'get_data'
p201
sasS'pyver'
p202
S'Python 2.7.3: /usr/local/bin/uwsgi (prefix: /usr)'
p203
sS'session'
p204
g57
(S's\x81\t\x00\x00<div><table><tr><td style="font-weight:bold;vertical-align:top;">auth</td><td style="vertical-align:top;">:</td><td><div><table><tr><td style="font-weight:bold;vertical-align:top;">expiration</td><td style="vertical-align:top;">:</td><td><div>3600</div></td></tr><tr><td style="font-weight:bold;vertical-align:top;">hmac_key</td><td style="vertical-align:top;">:</td><td><div>0556d8f4-b001-4778-bee4-eedaa38ffd21</div></td></tr><tr><td style="font-weight:bold;vertical-align:top;">last_visit</td><td style="vertical-align:top;">:</td><td><div>datetime.datetime(2016, 10, 20, 8, 22, 6, 670582)</div></td></tr><tr><td style="font-weight:bold;vertical-align:top;">remember</td><td style="vertical-align:top;">:</td><td><div>False</div></td></tr><tr><td style="font-weight:bold;vertical-align:top;">user</td><td style="vertical-align:top;">:</td><td><div><table><tr><td style="font-weight:bold;vertical-align:top;">email</td><td style="vertical-align:top;">:</td><td><div>project@integreen-life.bz.it</div></td></tr><tr><td style="font-weight:bold;vertical-align:top;">first_name</td><td style="vertical-align:top;">:</td><td><div>integreen</div></td></tr><tr><td style="font-weight:bold;vertical-align:top;">id</td><td style="vertical-align:top;">:</td><td><div>1L</div></td></tr><tr><td style="font-weight:bold;vertical-align:top;">last_name</td><td style="vertical-align:top;">:</td><td><div>integreen</div></td></tr><tr><td style="font-weight:bold;vertical-align:top;">registration_id</td><td style="vertical-align:top;">:</td><td><div></div></td></tr><tr><td style="font-weight:bold;vertical-align:top;">registration_key</td><td style="vertical-align:top;">:</td><td><div></div></td></tr><tr><td style="font-weight:bold;vertical-align:top;">reset_password_key</td><td style="vertical-align:top;">:</td><td><div></div></td></tr><tr><td style="font-weight:bold;vertical-align:top;">username</td><td style="vertical-align:top;">:</td><td><div>integreen</div></td></tr></table></div></td></tr><tr><td style="font-weight:bold;vertical-align:top;">user_groups</td><td style="vertical-align:top;">:</td><td><div><table><tr><td style="font-weight:bold;vertical-align:top;">1</td><td style="vertical-align:top;">:</td><td><div>user_1</div></td></tr></table></div></td></tr></table></div></td></tr><tr><td style="font-weight:bold;vertical-align:top;">flash</td><td style="vertical-align:top;">:</td><td><div>None</div></td></tr></table></div>'
tRp205
sS'etype'
p206
S"<type 'exceptions.TypeError'>"
p207
sS'date'
p208
S'Thu Oct 20 08:22:49 2016'
p209
sS'response'
p210
g57
(S'sV\x17\x00\x00<div><table><tr><td style="font-weight:bold;vertical-align:top;">body</td><td style="vertical-align:top;">:</td><td><div>&lt;cStringIO.StringO object at 0x2553e30&gt;</div></td></tr><tr><td style="font-weight:bold;vertical-align:top;">cookies</td><td style="vertical-align:top;">:</td><td><div><table><tr><td style="font-weight:bold;vertical-align:top;">session_id_ethical</td><td style="vertical-align:top;">:</td><td><div>185.167.192.253-33df71e5-4ead-4dfe-a83f-b38ceda5eb59<table><tr><td style="font-weight:bold;vertical-align:top;">comment</td><td style="vertical-align:top;">:</td><td><div></div></td></tr><tr><td style="font-weight:bold;vertical-align:top;">domain</td><td style="vertical-align:top;">:</td><td><div></div></td></tr><tr><td style="font-weight:bold;vertical-align:top;">expires</td><td style="vertical-align:top;">:</td><td><div></div></td></tr><tr><td style="font-weight:bold;vertical-align:top;">httponly</td><td style="vertical-align:top;">:</td><td><div></div></td></tr><tr><td style="font-weight:bold;vertical-align:top;">max-age</td><td style="vertical-align:top;">:</td><td><div></div></td></tr><tr><td style="font-weight:bold;vertical-align:top;">path</td><td style="vertical-align:top;">:</td><td><div>/</div></td></tr><tr><td style="font-weight:bold;vertical-align:top;">secure</td><td style="vertical-align:top;">:</td><td><div></div></td></tr><tr><td style="font-weight:bold;vertical-align:top;">version</td><td style="vertical-align:top;">:</td><td><div></div></td></tr></table></div></td></tr></table></div></td></tr><tr><td style="font-weight:bold;vertical-align:top;">delimiters</td><td style="vertical-align:top;">:</td><td><div><table><tr><td><div>{{</div></td></tr><tr><td><div>}}</div></td></tr></table></div></td></tr><tr><td style="font-weight:bold;vertical-align:top;">files</td><td style="vertical-align:top;">:</td><td><div><table></table></div></td></tr><tr><td style="font-weight:bold;vertical-align:top;">flash</td><td style="vertical-align:top;">:</td><td><div></div></td></tr><tr><td style="font-weight:bold;vertical-align:top;">generic_patterns</td><td style="vertical-align:top;">:</td><td><div><table></table></div></td></tr><tr><td style="font-weight:bold;vertical-align:top;">headers</td><td style="vertical-align:top;">:</td><td><div><table><tr><td style="font-weight:bold;vertical-align:top;">X-Powered-By</td><td style="vertical-align:top;">:</td><td><div>web2py</div></td></tr></table></div></td></tr><tr><td style="font-weight:bold;vertical-align:top;">menu</td><td style="vertical-align:top;">:</td><td><div><table></table></div></td></tr><tr><td style="font-weight:bold;vertical-align:top;">meta</td><td style="vertical-align:top;">:</td><td><div><table></table></div></td></tr><tr><td style="font-weight:bold;vertical-align:top;">models_to_run</td><td style="vertical-align:top;">:</td><td><div><table><tr><td><div>^\\w+\\.py$</div></td></tr><tr><td><div>^data/\\w+\\.py$</div></td></tr><tr><td><div>^data/get_data/\\w+\\.py$</div></td></tr></table></div></td></tr><tr><td style="font-weight:bold;vertical-align:top;">postprocessing</td><td style="vertical-align:top;">:</td><td><div><table></table></div></td></tr><tr><td style="font-weight:bold;vertical-align:top;">session_client</td><td style="vertical-align:top;">:</td><td><div>185.167.192.253</div></td></tr><tr><td style="font-weight:bold;vertical-align:top;">session_cookie_compression_level</td><td style="vertical-align:top;">:</td><td><div>None</div></td></tr><tr><td style="font-weight:bold;vertical-align:top;">session_cookie_expires</td><td style="vertical-align:top;">:</td><td><div>None</div></td></tr><tr><td style="font-weight:bold;vertical-align:top;">session_cookie_key</td><td style="vertical-align:top;">:</td><td><div>None</div></td></tr><tr><td style="font-weight:bold;vertical-align:top;">session_data_name</td><td style="vertical-align:top;">:</td><td><div>session_data_ethical</div></td></tr><tr><td style="font-weight:bold;vertical-align:top;">session_file</td><td style="vertical-align:top;">:</td><td><div>&lt;open file &#x27;/home/www-data/web2py.git/applications/ethical/sessions/185.167.192.253-33df71e5-4ead-4dfe-a83f-b38ceda5eb59&#x27;, mode &#x27;rb+&#x27; at 0x231fed0&gt;</div></td></tr><tr><td style="font-weight:bold;vertical-align:top;">session_filename</td><td style="vertical-align:top;">:</td><td><div>/home/www-data/web2py.git/applications/ethical/sessions/185.167.192.253-33df71e5-4ead-4dfe-a83f-b38ceda5eb59</div></td></tr><tr><td style="font-weight:bold;vertical-align:top;">session_hash</td><td style="vertical-align:top;">:</td><td><div>df7d2542b3cf7ea83af60399de4d5602</div></td></tr><tr><td style="font-weight:bold;vertical-align:top;">session_id</td><td style="vertical-align:top;">:</td><td><div>185.167.192.253-33df71e5-4ead-4dfe-a83f-b38ceda5eb59</div></td></tr><tr><td style="font-weight:bold;vertical-align:top;">session_id_name</td><td style="vertical-align:top;">:</td><td><div>session_id_ethical</div></td></tr><tr><td style="font-weight:bold;vertical-align:top;">session_locked</td><td style="vertical-align:top;">:</td><td><div>True</div></td></tr><tr><td style="font-weight:bold;vertical-align:top;">session_masterapp</td><td style="vertical-align:top;">:</td><td><div>ethical</div></td></tr><tr><td style="font-weight:bold;vertical-align:top;">session_new</td><td style="vertical-align:top;">:</td><td><div>False</div></td></tr><tr><td style="font-weight:bold;vertical-align:top;">session_storage_type</td><td style="vertical-align:top;">:</td><td><div>file</div></td></tr><tr><td style="font-weight:bold;vertical-align:top;">static_version</td><td style="vertical-align:top;">:</td><td><div>0.0.2</div></td></tr><tr><td style="font-weight:bold;vertical-align:top;">status</td><td style="vertical-align:top;">:</td><td><div>200</div></td></tr><tr><td style="font-weight:bold;vertical-align:top;">view</td><td style="vertical-align:top;">:</td><td><div>data/get_data.json</div></td></tr></table></div>'
tRp211
sS'locals'
p212
(dp213
S'from_epoch'
p214
S'1476339727956'
p215
sS'frontend'
p216
S"'Bluetooth'"
p217
sS'd'
S"u'exceptionMessage'"
p218
sS'data_type'
p219
S"'Bluetooth Count record'"
p220
sS'url'
p221
S"'http://ipchannels.integreen-life.bz.it/BluetoothFrontEnd/rest/get-records-in-timeframe'"
p222
sS'period'
p223
S"'900'"
p224
sS'seconds'
p225
S'None'
p226
sS'station'
p227
S"'siemens'"
p228
sS'params'
p229
S"{'from': 1476339727956, 'name': 'Bluetooth Count record', 'period': '900', 'station': 'siemens', 'to': 1476944527957, 'unit': ''}"
p230
sS'to_epoch'
p231
S'1476944527957'
p232
sS'r'
S'<Response [500]>'
p233
sS'data'
p234
S"{u'exceptionMessage': u'Failed to execute request to xmlrpcserver', u'exceptionName': u'java.lang.IllegalStateException'}"
p235
sS'unit'
p236
S"''"
p237
sS'data_label'
p238
S"'Count record  (900)s'"
p239
sssS'traceback'
p240
S'Traceback (most recent call last):\n  File "/home/www-data/web2py/gluon/restricted.py", line 220, in restricted\n    exec ccode in environment\n  File "/home/www-data/web2py.git/applications/ethical/controllers/data.py", line 174, in <module>\n  File "/home/www-data/web2py/gluon/globals.py", line 385, in <lambda>\n    self._caller = lambda f: f()\n  File "/home/www-data/web2py/gluon/cache.py", line 510, in wrapped_f\n    rtn = cache_model(cache_key, lambda : func(), time_expire=time_expire)\n  File "/home/www-data/web2py/gluon/cache.py", line 216, in __call__\n    value = f()\n  File "/home/www-data/web2py/gluon/cache.py", line 510, in <lambda>\n    rtn = cache_model(cache_key, lambda : func(), time_expire=time_expire)\n  File "/home/www-data/web2py.git/applications/ethical/controllers/data.py", line 94, in get_data\n    output = [ [d[\'timestamp\'], "%.2f" % float(d[\'value\'])] for d in data]\nTypeError: string indices must be integers\n'
p241
s.